target datalayout = "e-m:e-p270:32:32-p271:32:32-p272:64:64-i64:64-i128:128-f80:128-n8:16:32:64-S128"
target triple = "x86_64-pc-linux-gnu"

%struct.stbi__context = type { i32, i32, i32, i32, %struct.stbi_io_callbacks, ptr, i32, i32, [128 x i8], i32, ptr, ptr, ptr, ptr }
%struct.stbi_io_callbacks = type { ptr, ptr, ptr }
%struct.stbi__jpeg = type { ptr, [4 x %struct.stbi__huffman], [4 x %struct.stbi__huffman], [4 x [64 x i16]], [4 x [512 x i16]], i32, i32, i32, i32, i32, i32, [4 x %struct.anon], i32, i32, i8, i32, i32, i32, i32, i32, i32, i32, i32, i32, i32, i32, [4 x i32], i32, i32, ptr, ptr, ptr }
%struct.stbi__huffman = type { [512 x i8], [256 x i16], [256 x i8], [257 x i8], [18 x i32], [17 x i32] }
%struct.anon = type { i32, i32, i32, i32, i32, i32, i32, i32, i32, i32, i32, ptr, ptr, ptr, ptr, ptr, i32, i32 }

; Function Attrs: nounwind uwtable
define internal void @stbi__refill_buffer(ptr noundef %0) #0 {
  %2 = alloca ptr, align 8
  %3 = alloca i32, align 4
  store ptr %0, ptr %2, align 8
  call void @llvm.lifetime.start.p0(i64 4, ptr %3) #8
  %4 = load ptr, ptr %2, align 8
  %5 = getelementptr inbounds nuw %struct.stbi__context, ptr %4, i32 0, i32 4
  %6 = getelementptr inbounds nuw %struct.stbi_io_callbacks, ptr %5, i32 0, i32 0
  %7 = load ptr, ptr %6, align 8
  %8 = load ptr, ptr %2, align 8
  %9 = getelementptr inbounds nuw %struct.stbi__context, ptr %8, i32 0, i32 5
  %10 = load ptr, ptr %9, align 8
  %11 = load ptr, ptr %2, align 8
  %12 = getelementptr inbounds nuw %struct.stbi__context, ptr %11, i32 0, i32 8
  %13 = getelementptr inbounds [128 x i8], ptr %12, i64 0, i64 0
  %14 = load ptr, ptr %2, align 8
  %15 = getelementptr inbounds nuw %struct.stbi__context, ptr %14, i32 0, i32 7
  %16 = load i32, ptr %15, align 4
  %17 = call i32 %7(ptr noundef %10, ptr noundef %13, i32 noundef %16)
  store i32 %17, ptr %3, align 4
  %18 = load ptr, ptr %2, align 8
  %19 = getelementptr inbounds nuw %struct.stbi__context, ptr %18, i32 0, i32 10
  %20 = load ptr, ptr %19, align 8
  %21 = load ptr, ptr %2, align 8
  %22 = getelementptr inbounds nuw %struct.stbi__context, ptr %21, i32 0, i32 12
  %23 = load ptr, ptr %22, align 8
  %24 = ptrtoint ptr %20 to i64
  %25 = ptrtoint ptr %23 to i64
  %26 = sub i64 %24, %25
  %27 = trunc i64 %26 to i32
  %28 = load ptr, ptr %2, align 8
  %29 = getelementptr inbounds nuw %struct.stbi__context, ptr %28, i32 0, i32 9
  %30 = load i32, ptr %29, align 8
  %31 = add nsw i32 %30, %27
  store i32 %31, ptr %29, align 8
  %32 = load i32, ptr %3, align 4
  %33 = icmp eq i32 %32, 0
  br i1 %33, label %34, label %51

34:                                               ; preds = %1
  %35 = load ptr, ptr %2, align 8
  %36 = getelementptr inbounds nuw %struct.stbi__context, ptr %35, i32 0, i32 6
  store i32 0, ptr %36, align 8
  %37 = load ptr, ptr %2, align 8
  %38 = getelementptr inbounds nuw %struct.stbi__context, ptr %37, i32 0, i32 8
  %39 = getelementptr inbounds [128 x i8], ptr %38, i64 0, i64 0
  %40 = load ptr, ptr %2, align 8
  %41 = getelementptr inbounds nuw %struct.stbi__context, ptr %40, i32 0, i32 10
  store ptr %39, ptr %41, align 8
  %42 = load ptr, ptr %2, align 8
  %43 = getelementptr inbounds nuw %struct.stbi__context, ptr %42, i32 0, i32 8
  %44 = getelementptr inbounds [128 x i8], ptr %43, i64 0, i64 0
  %45 = getelementptr inbounds i8, ptr %44, i64 1
  %46 = load ptr, ptr %2, align 8
  %47 = getelementptr inbounds nuw %struct.stbi__context, ptr %46, i32 0, i32 11
  store ptr %45, ptr %47, align 8
  %48 = load ptr, ptr %2, align 8
  %49 = getelementptr inbounds nuw %struct.stbi__context, ptr %48, i32 0, i32 10
  %50 = load ptr, ptr %49, align 8
  store i8 0, ptr %50, align 1
  br label %65

51:                                               ; preds = %1
  %52 = load ptr, ptr %2, align 8
  %53 = getelementptr inbounds nuw %struct.stbi__context, ptr %52, i32 0, i32 8
  %54 = getelementptr inbounds [128 x i8], ptr %53, i64 0, i64 0
  %55 = load ptr, ptr %2, align 8
  %56 = getelementptr inbounds nuw %struct.stbi__context, ptr %55, i32 0, i32 10
  store ptr %54, ptr %56, align 8
  %57 = load ptr, ptr %2, align 8
  %58 = getelementptr inbounds nuw %struct.stbi__context, ptr %57, i32 0, i32 8
  %59 = getelementptr inbounds [128 x i8], ptr %58, i64 0, i64 0
  %60 = load i32, ptr %3, align 4
  %61 = sext i32 %60 to i64
  %62 = getelementptr inbounds i8, ptr %59, i64 %61
  %63 = load ptr, ptr %2, align 8
  %64 = getelementptr inbounds nuw %struct.stbi__context, ptr %63, i32 0, i32 11
  store ptr %62, ptr %64, align 8
  br label %65

65:                                               ; preds = %51, %34
  call void @llvm.lifetime.end.p0(i64 4, ptr %3) #8
  ret void
}

; Function Attrs: nounwind uwtable
define internal zeroext i8 @stbi__get8(ptr noundef %0) #0 {
  %2 = alloca i8, align 1
  %3 = alloca ptr, align 8
  store ptr %0, ptr %3, align 8
  %4 = load ptr, ptr %3, align 8
  %5 = getelementptr inbounds nuw %struct.stbi__context, ptr %4, i32 0, i32 10
  %6 = load ptr, ptr %5, align 8
  %7 = load ptr, ptr %3, align 8
  %8 = getelementptr inbounds nuw %struct.stbi__context, ptr %7, i32 0, i32 11
  %9 = load ptr, ptr %8, align 8
  %10 = icmp ult ptr %6, %9
  br i1 %10, label %11, label %17

11:                                               ; preds = %1
  %12 = load ptr, ptr %3, align 8
  %13 = getelementptr inbounds nuw %struct.stbi__context, ptr %12, i32 0, i32 10
  %14 = load ptr, ptr %13, align 8
  %15 = getelementptr inbounds nuw i8, ptr %14, i32 1
  store ptr %15, ptr %13, align 8
  %16 = load i8, ptr %14, align 1
  store i8 %16, ptr %2, align 1
  br label %30

17:                                               ; preds = %1
  %18 = load ptr, ptr %3, align 8
  %19 = getelementptr inbounds nuw %struct.stbi__context, ptr %18, i32 0, i32 6
  %20 = load i32, ptr %19, align 8
  %21 = icmp ne i32 %20, 0
  br i1 %21, label %22, label %29

22:                                               ; preds = %17
  %23 = load ptr, ptr %3, align 8
  call void @stbi__refill_buffer(ptr noundef %23)
  %24 = load ptr, ptr %3, align 8
  %25 = getelementptr inbounds nuw %struct.stbi__context, ptr %24, i32 0, i32 10
  %26 = load ptr, ptr %25, align 8
  %27 = getelementptr inbounds nuw i8, ptr %26, i32 1
  store ptr %27, ptr %25, align 8
  %28 = load i8, ptr %26, align 1
  store i8 %28, ptr %2, align 1
  br label %30

29:                                               ; preds = %17
  store i8 0, ptr %2, align 1
  br label %30

30:                                               ; preds = %29, %22, %11
  %31 = load i8, ptr %2, align 1
  ret i8 %31
}

; Function Attrs: nounwind uwtable
define internal void @stbi__grow_buffer_unsafe(ptr noundef %0) #0 {
  %2 = alloca ptr, align 8
  %3 = alloca i32, align 4
  %4 = alloca i32, align 4
  %5 = alloca i32, align 4
  store ptr %0, ptr %2, align 8
  br label %6

6:                                                ; preds = %69, %1
  call void @llvm.lifetime.start.p0(i64 4, ptr %3) #8
  %7 = load ptr, ptr %2, align 8
  %8 = getelementptr inbounds nuw %struct.stbi__jpeg, ptr %7, i32 0, i32 15
  %9 = load i32, ptr %8, align 4
  %10 = icmp ne i32 %9, 0
  br i1 %10, label %11, label %12

11:                                               ; preds = %6
  br label %18

12:                                               ; preds = %6
  %13 = load ptr, ptr %2, align 8
  %14 = getelementptr inbounds nuw %struct.stbi__jpeg, ptr %13, i32 0, i32 0
  %15 = load ptr, ptr %14, align 8
  %16 = call zeroext i8 @stbi__get8(ptr noundef %15)
  %17 = zext i8 %16 to i32
  br label %18

18:                                               ; preds = %12, %11
  %19 = phi i32 [ 0, %11 ], [ %17, %12 ]
  store i32 %19, ptr %3, align 4
  %20 = load i32, ptr %3, align 4
  %21 = icmp eq i32 %20, 255
  br i1 %21, label %22, label %51

22:                                               ; preds = %18
  call void @llvm.lifetime.start.p0(i64 4, ptr %4) #8
  %23 = load ptr, ptr %2, align 8
  %24 = getelementptr inbounds nuw %struct.stbi__jpeg, ptr %23, i32 0, i32 0
  %25 = load ptr, ptr %24, align 8
  %26 = call zeroext i8 @stbi__get8(ptr noundef %25)
  %27 = zext i8 %26 to i32
  store i32 %27, ptr %4, align 4
  br label %28

28:                                               ; preds = %31, %22
  %29 = load i32, ptr %4, align 4
  %30 = icmp eq i32 %29, 255
  br i1 %30, label %31, label %37

31:                                               ; preds = %28
  %32 = load ptr, ptr %2, align 8
  %33 = getelementptr inbounds nuw %struct.stbi__jpeg, ptr %32, i32 0, i32 0
  %34 = load ptr, ptr %33, align 8
  %35 = call zeroext i8 @stbi__get8(ptr noundef %34)
  %36 = zext i8 %35 to i32
  store i32 %36, ptr %4, align 4
  br label %28, !llvm.loop !75

37:                                               ; preds = %28
  %38 = load i32, ptr %4, align 4
  %39 = icmp ne i32 %38, 0
  br i1 %39, label %40, label %47

40:                                               ; preds = %37
  %41 = load i32, ptr %4, align 4
  %42 = trunc i32 %41 to i8
  %43 = load ptr, ptr %2, align 8
  %44 = getelementptr inbounds nuw %struct.stbi__jpeg, ptr %43, i32 0, i32 14
  store i8 %42, ptr %44, align 8
  %45 = load ptr, ptr %2, align 8
  %46 = getelementptr inbounds nuw %struct.stbi__jpeg, ptr %45, i32 0, i32 15
  store i32 1, ptr %46, align 4
  store i32 1, ptr %5, align 4
  br label %48

47:                                               ; preds = %37
  store i32 0, ptr %5, align 4
  br label %48

48:                                               ; preds = %47, %40
  call void @llvm.lifetime.end.p0(i64 4, ptr %4) #8
  %49 = load i32, ptr %5, align 4
  switch i32 %49, label %66 [
    i32 0, label %50
  ]

50:                                               ; preds = %48
  br label %51

51:                                               ; preds = %50, %18
  %52 = load i32, ptr %3, align 4
  %53 = load ptr, ptr %2, align 8
  %54 = getelementptr inbounds nuw %struct.stbi__jpeg, ptr %53, i32 0, i32 13
  %55 = load i32, ptr %54, align 4
  %56 = sub nsw i32 24, %55
  %57 = shl i32 %52, %56
  %58 = load ptr, ptr %2, align 8
  %59 = getelementptr inbounds nuw %struct.stbi__jpeg, ptr %58, i32 0, i32 12
  %60 = load i32, ptr %59, align 8
  %61 = or i32 %60, %57
  store i32 %61, ptr %59, align 8
  %62 = load ptr, ptr %2, align 8
  %63 = getelementptr inbounds nuw %struct.stbi__jpeg, ptr %62, i32 0, i32 13
  %64 = load i32, ptr %63, align 4
  %65 = add nsw i32 %64, 8
  store i32 %65, ptr %63, align 4
  store i32 0, ptr %5, align 4
  br label %66

66:                                               ; preds = %51, %48
  call void @llvm.lifetime.end.p0(i64 4, ptr %3) #8
  %67 = load i32, ptr %5, align 4
  switch i32 %67, label %75 [
    i32 0, label %68
    i32 1, label %74
  ]

68:                                               ; preds = %66
  br label %69

69:                                               ; preds = %68
  %70 = load ptr, ptr %2, align 8
  %71 = getelementptr inbounds nuw %struct.stbi__jpeg, ptr %70, i32 0, i32 13
  %72 = load i32, ptr %71, align 4
  %73 = icmp sle i32 %72, 24
  br i1 %73, label %6, label %74, !llvm.loop !76

74:                                               ; preds = %66, %69
  ret void

75:                                               ; preds = %66
  unreachable
}